target datalayout = "e-m:e-p270:32:32-p271:32:32-p272:64:64-i64:64-i128:128-f80:128-n8:16:32:64-S128"
target triple = "x86_64-pc-linux-gnu"

@.str.3868 = private unnamed_addr constant [18 x i8] c": (No values set)\00", align 1
@.str.3869 = private unnamed_addr constant [26 x i8] c"Unknown bitmap value 0x%x\00", align 1
@mapi_dissect_bitmap_DeleteFolderFlags.mapi_DeleteFolderFlags_fields = internal constant [4 x ptr] [ptr @hf_mapi_DeleteFolderFlags_DEL_MESSAGES, ptr @hf_mapi_DeleteFolderFlags_DEL_FOLDERS, ptr @hf_mapi_DeleteFolderFlags_DELETE_HARD_DELETE, ptr null], align 16
@ett_mapi_DeleteFolderFlags = internal global i32 0, align 4

; Function Attrs: null_pointer_is_valid sspstrong uwtable
define hidden i32 @mapi_dissect_bitmap_DeleteFolderFlags(ptr noundef %0, i32 noundef %1, ptr noundef %2, ptr noundef %3, ptr noundef %4, ptr noundef %5, i32 noundef %6, i32 noundef %7) #0 {
  %9 = alloca ptr, align 8
  %10 = alloca i32, align 4
  %11 = alloca ptr, align 8
  %12 = alloca ptr, align 8
  %13 = alloca ptr, align 8
  %14 = alloca ptr, align 8
  %15 = alloca i32, align 4
  %16 = alloca i32, align 4
  %17 = alloca ptr, align 8
  %18 = alloca i8, align 1
  store ptr %0, ptr %9, align 8
  store i32 %1, ptr %10, align 4
  store ptr %2, ptr %11, align 8
  store ptr %3, ptr %12, align 8
  store ptr %4, ptr %13, align 8
  store ptr %5, ptr %14, align 8
  store i32 %6, ptr %15, align 4
  store i32 %7, ptr %16, align 4
  call void @llvm.lifetime.start.p0(i64 8, ptr %17) #5
  call void @llvm.lifetime.start.p0(i64 1, ptr %18) #5
  %19 = load ptr, ptr %12, align 8
  %20 = load ptr, ptr %9, align 8
  %21 = load i32, ptr %10, align 4
  %22 = load i32, ptr %15, align 4
  %23 = load i32, ptr @ett_mapi_DeleteFolderFlags, align 4
  %24 = load ptr, ptr %14, align 8
  %25 = getelementptr i8, ptr %24, i64 0
  %26 = load i8, ptr %25, align 1
  %27 = zext i8 %26 to i32
  %28 = and i32 %27, 16
  %29 = icmp ne i32 %28, 0
  %30 = select i1 %29, i32 -2147483648, i32 0
  %31 = call ptr @proto_tree_add_bitmask_with_flags(ptr noundef %19, ptr noundef %20, i32 noundef %21, i32 noundef %22, i32 noundef %23, ptr noundef @mapi_dissect_bitmap_DeleteFolderFlags.mapi_DeleteFolderFlags_fields, i32 noundef %30, i32 noundef 4)
  store ptr %31, ptr %17, align 8
  %32 = load ptr, ptr %9, align 8
  %33 = load i32, ptr %10, align 4
  %34 = load ptr, ptr %11, align 8
  %35 = load ptr, ptr %12, align 8
  %36 = load ptr, ptr %13, align 8
  %37 = load ptr, ptr %14, align 8
  %38 = call i32 @dissect_ndr_uint8(ptr noundef %32, i32 noundef %33, ptr noundef %34, ptr noundef %35, ptr noundef %36, ptr noundef %37, i32 noundef -1, ptr noundef %18)
  store i32 %38, ptr %10, align 4
  %39 = load i8, ptr %18, align 1
  %40 = icmp ne i8 %39, 0
  br i1 %40, label %43, label %41

41:                                               ; preds = %8
  %42 = load ptr, ptr %17, align 8
  call void (ptr, ptr, ...) @proto_item_append_text(ptr noundef %42, ptr noundef @.str.3868)
  br label %43

43:                                               ; preds = %41, %8
  %44 = load i8, ptr %18, align 1
  %45 = zext i8 %44 to i32
  %46 = and i32 %45, -22
  %47 = icmp ne i32 %46, 0
  br i1 %47, label %48, label %56

48:                                               ; preds = %43
  %49 = load i8, ptr %18, align 1
  %50 = zext i8 %49 to i32
  %51 = and i32 %50, -22
  %52 = trunc i32 %51 to i8
  store i8 %52, ptr %18, align 1
  %53 = load ptr, ptr %17, align 8
  %54 = load i8, ptr %18, align 1
  %55 = zext i8 %54 to i32
  call void (ptr, ptr, ...) @proto_item_append_text(ptr noundef %53, ptr noundef @.str.3869, i32 noundef %55)
  br label %56

56:                                               ; preds = %48, %43
  %57 = load i32, ptr %10, align 4
  call void @llvm.lifetime.end.p0(i64 1, ptr %18) #5
  call void @llvm.lifetime.end.p0(i64 8, ptr %17) #5
  ret i32 %57
}